target datalayout = "e-m:e-p270:32:32-p271:32:32-p272:64:64-i64:64-i128:128-f80:128-n8:16:32:64-S128"
target triple = "x86_64-pc-linux-gnu"

%struct.ws_log_manifest_t = type { %struct.tm, i64, i64 }
%struct.tm = type { i32, i32, i32, i32, i32, i32, i32, i32, i32, i64, ptr }
%struct.timespec = type { i64, i64 }

; Function Attrs: inlinehint nounwind null_pointer_is_valid sspstrong uwtable
define internal void @get_timestamp(ptr noundef %0) #13 {
  %2 = alloca ptr, align 8
  %3 = alloca i8, align 1
  %4 = alloca i32, align 4
  store ptr %0, ptr %2, align 8
  call void @llvm.lifetime.start.p0(i64 1, ptr %3) #19
  store i8 0, ptr %3, align 1
  %5 = load ptr, ptr %2, align 8
  %6 = call i32 @clock_gettime(i32 noundef 0, ptr noundef %5) #19
  %7 = icmp eq i32 %6, 0
  %8 = zext i1 %7 to i8
  store i8 %8, ptr %3, align 1
  %9 = load i8, ptr %3, align 1, !range !6, !noundef !7
  %10 = trunc i8 %9 to i1
  br i1 %10, label %11, label %12

11:                                               ; preds = %1
  store i32 1, ptr %4, align 4
  br label %18

12:                                               ; preds = %1
  %13 = call i64 @time(ptr noundef null) #19
  %14 = load ptr, ptr %2, align 8
  %15 = getelementptr inbounds nuw %struct.timespec, ptr %14, i32 0, i32 0
  store i64 %13, ptr %15, align 8
  %16 = load ptr, ptr %2, align 8
  %17 = getelementptr inbounds nuw %struct.timespec, ptr %16, i32 0, i32 1
  store i64 -1, ptr %17, align 8
  store i32 0, ptr %4, align 4
  br label %18

18:                                               ; preds = %12, %11
  call void @llvm.lifetime.end.p0(i64 1, ptr %3) #19
  %19 = load i32, ptr %4, align 4
  switch i32 %19, label %21 [
    i32 0, label %20
    i32 1, label %20
  ]

20:                                               ; preds = %18, %18
  ret void

21:                                               ; preds = %18
  unreachable
}

; Function Attrs: inlinehint null_pointer_is_valid sspstrong uwtable
define internal void @fill_manifest(ptr noundef %0) #2 {
  %2 = alloca ptr, align 8
  %3 = alloca %struct.timespec, align 8
  store ptr %0, ptr %2, align 8
  call void @llvm.lifetime.start.p0(i64 16, ptr %3) #19
  call void @get_timestamp(ptr noundef %3)
  %4 = getelementptr inbounds nuw %struct.timespec, ptr %3, i32 0, i32 0
  %5 = load ptr, ptr %2, align 8
  %6 = getelementptr inbounds nuw %struct.ws_log_manifest_t, ptr %5, i32 0, i32 0
  %7 = call ptr @ws_localtime_r(ptr noundef %4, ptr noundef %6)
  %8 = getelementptr inbounds nuw %struct.timespec, ptr %3, i32 0, i32 1
  %9 = load i64, ptr %8, align 8
  %10 = load ptr, ptr %2, align 8
  %11 = getelementptr inbounds nuw %struct.ws_log_manifest_t, ptr %10, i32 0, i32 1
  store i64 %9, ptr %11, align 8
  %12 = call i32 @getpid() #19
  %13 = sext i32 %12 to i64
  %14 = load ptr, ptr %2, align 8
  %15 = getelementptr inbounds nuw %struct.ws_log_manifest_t, ptr %14, i32 0, i32 2
  store i64 %13, ptr %15, align 8
  call void @llvm.lifetime.end.p0(i64 16, ptr %3) #19
  ret void
}

; Function Attrs: inlinehint null_pointer_is_valid sspstrong uwtable
define internal zeroext i1 @msg_is_active(ptr noundef %0, i32 noundef %1, ptr noundef %2) #2 {
  %4 = alloca ptr, align 8
  %5 = alloca i32, align 4
  %6 = alloca ptr, align 8
  %7 = alloca i8, align 1
  store ptr %0, ptr %4, align 8
  store i32 %1, ptr %5, align 4
  store ptr %2, ptr %6, align 8
  call void @llvm.lifetime.start.p0(i64 1, ptr %7) #19
  %8 = load ptr, ptr %4, align 8
  %9 = load i32, ptr %5, align 4
  %10 = call zeroext i1 @ws_log_msg_is_active(ptr noundef %8, i32 noundef %9)
  %11 = zext i1 %10 to i8
  store i8 %11, ptr %7, align 1
  %12 = load i8, ptr %7, align 1, !range !6, !noundef !7
  %13 = trunc i8 %12 to i1
  br i1 %13, label %14, label %16

14:                                               ; preds = %3
  %15 = load ptr, ptr %6, align 8
  call void @fill_manifest(ptr noundef %15)
  br label %16

16:                                               ; preds = %14, %3
  %17 = load i8, ptr %7, align 1, !range !6, !noundef !7
  %18 = trunc i8 %17 to i1
  call void @llvm.lifetime.end.p0(i64 1, ptr %7) #19
  ret i1 %18
}

; Function Attrs: null_pointer_is_valid sspstrong uwtable
define void @ws_logv_full(ptr noundef %0, i32 noundef %1, ptr noundef %2, i64 noundef %3, ptr noundef %4, ptr noundef %5, ptr noundef %6) #1 {
  %8 = alloca ptr, align 8
  %9 = alloca i32, align 4
  %10 = alloca ptr, align 8
  %11 = alloca i64, align 8
  %12 = alloca ptr, align 8
  %13 = alloca ptr, align 8
  %14 = alloca ptr, align 8
  %15 = alloca %struct.ws_log_manifest_t, align 8
  %16 = alloca i32, align 4
  store ptr %0, ptr %8, align 8
  store i32 %1, ptr %9, align 4
  store ptr %2, ptr %10, align 8
  store i64 %3, ptr %11, align 8
  store ptr %4, ptr %12, align 8
  store ptr %5, ptr %13, align 8
  store ptr %6, ptr %14, align 8
  call void @llvm.lifetime.start.p0(i64 72, ptr %15) #19
  %17 = load ptr, ptr %8, align 8
  %18 = load i32, ptr %9, align 4
  %19 = call zeroext i1 @msg_is_active(ptr noundef %17, i32 noundef %18, ptr noundef %15)
  br i1 %19, label %21, label %20

20:                                               ; preds = %7
  store i32 1, ptr %16, align 4
  br label %29

21:                                               ; preds = %7
  %22 = load ptr, ptr %8, align 8
  %23 = load i32, ptr %9, align 4
  %24 = load ptr, ptr %10, align 8
  %25 = load i64, ptr %11, align 8
  %26 = load ptr, ptr %12, align 8
  %27 = load ptr, ptr %13, align 8
  %28 = load ptr, ptr %14, align 8
  call void @log_write_dispatch(ptr noundef %22, i32 noundef %23, ptr noundef %24, i64 noundef %25, ptr noundef %26, ptr noundef %15, ptr noundef %27, ptr noundef %28)
  store i32 0, ptr %16, align 4
  br label %29

29:                                               ; preds = %21, %20
  call void @llvm.lifetime.end.p0(i64 72, ptr %15) #19
  %30 = load i32, ptr %16, align 4
  switch i32 %30, label %32 [
    i32 0, label %31
    i32 1, label %31
  ]

31:                                               ; preds = %29, %29
  ret void

32:                                               ; preds = %29
  unreachable
}