; Function Attrs: null_pointer_is_valid sspstrong uwtable
define void @ws_logv_full(ptr noundef %0, i32 noundef %1, ptr noundef %2, i64 noundef %3, ptr noundef %4, ptr noundef %5, ptr noundef %6) local_unnamed_addr #1 {
  %8 = alloca %struct.timespec, align 8
  %9 = alloca %struct.ws_log_manifest_t, align 8
  call void @llvm.lifetime.start.p0(i64 72, ptr nonnull %9) #23
  %10 = tail call zeroext i1 @ws_log_msg_is_active(ptr noundef %0, i32 noundef %1)
  br i1 %10, label %11, label %msg_is_active.exit

11:                                               ; preds = %7
  call void @llvm.lifetime.start.p0(i64 16, ptr nonnull %8) #23
  %12 = call i32 @clock_gettime(i32 noundef 0, ptr noundef nonnull %8) #23
  %13 = icmp eq i32 %12, 0
  br i1 %13, label %17, label %14

14:                                               ; preds = %11
  %15 = call i64 @time(ptr noundef null) #23
  store i64 %15, ptr %8, align 8
  %16 = getelementptr inbounds nuw i8, ptr %8, i64 8
  store i64 -1, ptr %16, align 8
  br label %17

17:                                               ; preds = %11, %14
  %18 = call ptr @ws_localtime_r(ptr noundef nonnull %8, ptr noundef nonnull %9)
  %19 = getelementptr inbounds nuw i8, ptr %8, i64 8
  %20 = load i64, ptr %19, align 8
  %21 = getelementptr inbounds nuw i8, ptr %9, i64 56
  store i64 %20, ptr %21, align 8
  %22 = call i32 @getpid() #23
  %23 = sext i32 %22 to i64
  %24 = getelementptr inbounds nuw i8, ptr %9, i64 64
  store i64 %23, ptr %24, align 8
  call void @llvm.lifetime.end.p0(i64 16, ptr nonnull %8) #23
  call fastcc void @log_write_dispatch(ptr noundef %0, i32 noundef %1, ptr noundef %2, i64 noundef %3, ptr noundef %4, ptr noundef nonnull %9, ptr noundef %5, ptr noundef %6)
  br label %msg_is_active.exit

msg_is_active.exit:                               ; preds = %7, %17
  call void @llvm.lifetime.end.p0(i64 72, ptr nonnull %9) #23
  ret void
}